target datalayout = "e-m:e-p270:32:32-p271:32:32-p272:64:64-i64:64-i128:128-f80:128-n8:16:32:64-S128"
target triple = "x86_64-pc-linux-gnu"

%struct._object = type { i64, ptr }
%struct._typeobject = type { %struct.PyVarObject, ptr, i64, i64, ptr, i64, ptr, ptr, ptr, ptr, ptr, ptr, ptr, ptr, ptr, ptr, ptr, ptr, ptr, i64, ptr, ptr, ptr, ptr, i64, ptr, ptr, ptr, ptr, ptr, ptr, ptr, ptr, ptr, i64, ptr, ptr, ptr, ptr, ptr, ptr, ptr, ptr, ptr, ptr, ptr, i32, ptr, ptr }
%struct.PyVarObject = type { %struct._object, i64 }
%class.ArgInfo = type <{ ptr, i8, i8, i8, i8, [4 x i8] }>

@_Py_NoneStruct = external global %struct._object, align 8
@opencv_ARRAY_API = external global ptr, align 8
@.str.17 = private unnamed_addr constant [43 x i8] c"Argument '%s' is required to be an integer\00", align 1
@.str.18 = private unnamed_addr constant [40 x i8] c"Argument '%s' must be integer, not bool\00", align 1
@PyBool_Type = external global %struct._typeobject, align 8

; Function Attrs: mustprogress nounwind uwtable
define internal noundef i32 @_ZL11_Py_IS_TYPEPK7_objectPK11_typeobject(ptr noundef %0, ptr noundef %1) #5 {
  %3 = alloca ptr, align 8
  %4 = alloca ptr, align 8
  store ptr %0, ptr %3, align 8
  store ptr %1, ptr %4, align 8
  %5 = load ptr, ptr %3, align 8
  %6 = getelementptr inbounds %struct._object, ptr %5, i32 0, i32 1
  %7 = load ptr, ptr %6, align 8
  %8 = load ptr, ptr %4, align 8
  %9 = icmp eq ptr %7, %8
  %10 = zext i1 %9 to i32
  ret i32 %10
}

; Function Attrs: mustprogress uwtable
define internal noundef i32 @_ZL19_PyObject_TypeCheckP7_objectP11_typeobject(ptr noundef %0, ptr noundef %1) #4 {
  %3 = alloca ptr, align 8
  %4 = alloca ptr, align 8
  store ptr %0, ptr %3, align 8
  store ptr %1, ptr %4, align 8
  %5 = load ptr, ptr %3, align 8
  %6 = load ptr, ptr %4, align 8
  %7 = call noundef i32 @_ZL11_Py_IS_TYPEPK7_objectPK11_typeobject(ptr noundef %5, ptr noundef %6)
  %8 = icmp ne i32 %7, 0
  br i1 %8, label %16, label %9

9:                                                ; preds = %2
  %10 = load ptr, ptr %3, align 8
  %11 = getelementptr inbounds %struct._object, ptr %10, i32 0, i32 1
  %12 = load ptr, ptr %11, align 8
  %13 = load ptr, ptr %4, align 8
  %14 = call i32 @PyType_IsSubtype(ptr noundef %12, ptr noundef %13)
  %15 = icmp ne i32 %14, 0
  br label %16

16:                                               ; preds = %9, %2
  %17 = phi i1 [ true, %2 ], [ %15, %9 ]
  %18 = zext i1 %17 to i32
  ret i32 %18
}

; Function Attrs: mustprogress nounwind uwtable
define internal noundef i32 @_ZL17PyType_HasFeatureP11_typeobjectm(ptr noundef %0, i64 noundef %1) #5 {
  %3 = alloca ptr, align 8
  %4 = alloca i64, align 8
  %5 = alloca i64, align 8
  store ptr %0, ptr %3, align 8
  store i64 %1, ptr %4, align 8
  %6 = load ptr, ptr %3, align 8
  %7 = getelementptr inbounds %struct._typeobject, ptr %6, i32 0, i32 19
  %8 = load i64, ptr %7, align 8
  store i64 %8, ptr %5, align 8
  %9 = load i64, ptr %5, align 8
  %10 = load i64, ptr %4, align 8
  %11 = and i64 %9, %10
  %12 = icmp ne i64 %11, 0
  %13 = zext i1 %12 to i32
  ret i32 %13
}

; Function Attrs: mustprogress nounwind uwtable
define linkonce_odr hidden noundef zeroext i1 @_Z6isBoolP7_object(ptr noundef %0) #5 comdat personality ptr @__gxx_personality_v0 {
  %2 = alloca ptr, align 8
  store ptr %0, ptr %2, align 8
  %3 = load ptr, ptr %2, align 8
  %4 = load ptr, ptr @opencv_ARRAY_API, align 8
  %5 = getelementptr inbounds ptr, ptr %4, i64 8
  %6 = load ptr, ptr %5, align 8
  %7 = invoke noundef i32 @_ZL19_PyObject_TypeCheckP7_objectP11_typeobject(ptr noundef %3, ptr noundef %6)
          to label %8 unwind label %17

8:                                                ; preds = %1
  %9 = icmp ne i32 %7, 0
  br i1 %9, label %15, label %10

10:                                               ; preds = %8
  %11 = load ptr, ptr %2, align 8
  %12 = invoke noundef i32 @_ZL11_Py_IS_TYPEPK7_objectPK11_typeobject(ptr noundef %11, ptr noundef @PyBool_Type)
          to label %13 unwind label %17

13:                                               ; preds = %10
  %14 = icmp ne i32 %12, 0
  br label %15

15:                                               ; preds = %13, %8
  %16 = phi i1 [ true, %8 ], [ %14, %13 ]
  ret i1 %16

17:                                               ; preds = %10, %1
  %18 = landingpad { ptr, i32 }
          catch ptr null
  %19 = extractvalue { ptr, i32 } %18, 0
  call void @__clang_call_terminate(ptr %19) #11
  unreachable
}

; Function Attrs: mustprogress uwtable
define hidden noundef zeroext i1 @_Z11pyopencv_toIiEbP7_objectRT_RK7ArgInfo(ptr noundef %0, ptr noundef nonnull align 4 dereferenceable(4) %1, ptr noundef nonnull align 8 dereferenceable(12) %2) #4 {
  %4 = alloca i1, align 1
  %5 = alloca ptr, align 8
  %6 = alloca ptr, align 8
  %7 = alloca ptr, align 8
  store ptr %0, ptr %5, align 8
  store ptr %1, ptr %6, align 8
  store ptr %2, ptr %7, align 8
  %8 = load ptr, ptr %5, align 8
  %9 = icmp ne ptr %8, null
  br i1 %9, label %10, label %13

10:                                               ; preds = %3
  %11 = load ptr, ptr %5, align 8
  %12 = icmp eq ptr %11, @_Py_NoneStruct
  br i1 %12, label %13, label %14

13:                                               ; preds = %10, %3
  store i1 true, ptr %4, align 1
  br label %57

14:                                               ; preds = %10
  %15 = load ptr, ptr %5, align 8
  %16 = call noundef zeroext i1 @_Z6isBoolP7_object(ptr noundef %15) #3
  br i1 %16, label %17, label %22

17:                                               ; preds = %14
  %18 = load ptr, ptr %7, align 8
  %19 = getelementptr inbounds %class.ArgInfo, ptr %18, i32 0, i32 0
  %20 = load ptr, ptr %19, align 8
  %21 = call noundef i32 (ptr, ...) @_Z7failmsgPKcz(ptr noundef @.str.18, ptr noundef %20)
  store i1 false, ptr %4, align 1
  br label %57

22:                                               ; preds = %14
  %23 = load ptr, ptr %5, align 8
  %24 = getelementptr inbounds %struct._object, ptr %23, i32 0, i32 1
  %25 = load ptr, ptr %24, align 8
  %26 = call noundef i32 @_ZL17PyType_HasFeatureP11_typeobjectm(ptr noundef %25, i64 noundef 16777216)
  %27 = icmp ne i32 %26, 0
  br i1 %27, label %35, label %28

28:                                               ; preds = %22
  %29 = load ptr, ptr %5, align 8
  %30 = load ptr, ptr @opencv_ARRAY_API, align 8
  %31 = getelementptr inbounds ptr, ptr %30, i64 12
  %32 = load ptr, ptr %31, align 8
  %33 = call noundef i32 @_ZL19_PyObject_TypeCheckP7_objectP11_typeobject(ptr noundef %29, ptr noundef %32)
  %34 = icmp ne i32 %33, 0
  br i1 %34, label %35, label %42

35:                                               ; preds = %28, %22
  %36 = load ptr, ptr @opencv_ARRAY_API, align 8
  %37 = getelementptr inbounds ptr, ptr %36, i64 100
  %38 = load ptr, ptr %37, align 8
  %39 = load ptr, ptr %5, align 8
  %40 = call noundef i32 %38(ptr noundef %39)
  %41 = load ptr, ptr %6, align 8
  store i32 %40, ptr %41, align 4
  br label %47

42:                                               ; preds = %28
  %43 = load ptr, ptr %7, align 8
  %44 = getelementptr inbounds %class.ArgInfo, ptr %43, i32 0, i32 0
  %45 = load ptr, ptr %44, align 8
  %46 = call noundef i32 (ptr, ...) @_Z7failmsgPKcz(ptr noundef @.str.17, ptr noundef %45)
  store i1 false, ptr %4, align 1
  br label %57

47:                                               ; preds = %35
  %48 = load ptr, ptr %6, align 8
  %49 = load i32, ptr %48, align 4
  %50 = icmp eq i32 %49, -1
  br i1 %50, label %51, label %54

51:                                               ; preds = %47
  %52 = call ptr @PyErr_Occurred()
  %53 = icmp ne ptr %52, null
  br label %54

54:                                               ; preds = %51, %47
  %55 = phi i1 [ false, %47 ], [ %53, %51 ]
  %56 = xor i1 %55, true
  store i1 %56, ptr %4, align 1
  br label %57

57:                                               ; preds = %54, %42, %17, %13
  %58 = load i1, ptr %4, align 1
  ret i1 %58
}